target datalayout = "e-m:e-p270:32:32-p271:32:32-p272:64:64-i64:64-i128:128-f80:128-n8:16:32:64-S128"
target triple = "x86_64-pc-linux-gnu"

; Function Attrs: nounwind uwtable
define internal void @scale_samples_s16p(ptr noundef %0, ptr noundef %1, i32 noundef %2, i32 noundef %3, double noundef %4) #1 {
  %6 = alloca ptr, align 8
  %7 = alloca ptr, align 8
  %8 = alloca i32, align 4
  %9 = alloca i32, align 4
  %10 = alloca double, align 8
  %11 = alloca i32, align 4
  %12 = alloca i32, align 4
  %13 = alloca ptr, align 8
  %14 = alloca ptr, align 8
  store ptr %0, ptr %6, align 8, !tbaa !77
  store ptr %1, ptr %7, align 8, !tbaa !77
  store i32 %2, ptr %8, align 4, !tbaa !30
  store i32 %3, ptr %9, align 4, !tbaa !30
  store double %4, ptr %10, align 8, !tbaa !78
  call void @llvm.lifetime.start.p0(i64 4, ptr %11) #10
  call void @llvm.lifetime.start.p0(i64 4, ptr %12) #10
  store i32 0, ptr %11, align 4, !tbaa !30
  br label %15

15:                                               ; preds = %53, %5
  %16 = load i32, ptr %11, align 4, !tbaa !30
  %17 = load i32, ptr %8, align 4, !tbaa !30
  %18 = icmp slt i32 %16, %17
  br i1 %18, label %19, label %56

19:                                               ; preds = %15
  store i32 0, ptr %12, align 4, !tbaa !30
  br label %20

20:                                               ; preds = %49, %19
  %21 = load i32, ptr %12, align 4, !tbaa !30
  %22 = load i32, ptr %9, align 4, !tbaa !30
  %23 = icmp slt i32 %21, %22
  br i1 %23, label %24, label %52

24:                                               ; preds = %20
  call void @llvm.lifetime.start.p0(i64 8, ptr %13) #10
  %25 = load ptr, ptr %6, align 8, !tbaa !77
  %26 = load i32, ptr %12, align 4, !tbaa !30
  %27 = sext i32 %26 to i64
  %28 = getelementptr inbounds ptr, ptr %25, i64 %27
  %29 = load ptr, ptr %28, align 8, !tbaa !29
  store ptr %29, ptr %13, align 8, !tbaa !100
  call void @llvm.lifetime.start.p0(i64 8, ptr %14) #10
  %30 = load ptr, ptr %7, align 8, !tbaa !77
  %31 = load i32, ptr %12, align 4, !tbaa !30
  %32 = sext i32 %31 to i64
  %33 = getelementptr inbounds ptr, ptr %30, i64 %32
  %34 = load ptr, ptr %33, align 8, !tbaa !29
  store ptr %34, ptr %14, align 8, !tbaa !100
  %35 = load ptr, ptr %14, align 8, !tbaa !100
  %36 = load i32, ptr %11, align 4, !tbaa !30
  %37 = sext i32 %36 to i64
  %38 = getelementptr inbounds i16, ptr %35, i64 %37
  %39 = load i16, ptr %38, align 2, !tbaa !102
  %40 = sext i16 %39 to i32
  %41 = sitofp i32 %40 to double
  %42 = load double, ptr %10, align 8, !tbaa !78
  %43 = fmul nsz double %41, %42
  %44 = fptosi double %43 to i16
  %45 = load ptr, ptr %13, align 8, !tbaa !100
  %46 = load i32, ptr %11, align 4, !tbaa !30
  %47 = sext i32 %46 to i64
  %48 = getelementptr inbounds i16, ptr %45, i64 %47
  store i16 %44, ptr %48, align 2, !tbaa !102
  call void @llvm.lifetime.end.p0(i64 8, ptr %14) #10
  call void @llvm.lifetime.end.p0(i64 8, ptr %13) #10
  br label %49

49:                                               ; preds = %24
  %50 = load i32, ptr %12, align 4, !tbaa !30
  %51 = add nsw i32 %50, 1
  store i32 %51, ptr %12, align 4, !tbaa !30
  br label %20, !llvm.loop !110

52:                                               ; preds = %20
  br label %53

53:                                               ; preds = %52
  %54 = load i32, ptr %11, align 4, !tbaa !30
  %55 = add nsw i32 %54, 1
  store i32 %55, ptr %11, align 4, !tbaa !30
  br label %15, !llvm.loop !111

56:                                               ; preds = %15
  call void @llvm.lifetime.end.p0(i64 4, ptr %12) #10
  call void @llvm.lifetime.end.p0(i64 4, ptr %11) #10
  ret void
}